target datalayout = "e-m:e-p270:32:32-p271:32:32-p272:64:64-i64:64-i128:128-f80:128-n8:16:32:64-S128"
target triple = "x86_64-pc-linux-gnu"

%"class.std::vector.1" = type { %"struct.std::_Vector_base.2" }
%"struct.std::_Vector_base.2" = type { %"struct.std::_Vector_base<ceres::internal::Block, std::allocator<ceres::internal::Block>>::_Vector_impl" }
%"struct.std::_Vector_base<ceres::internal::Block, std::allocator<ceres::internal::Block>>::_Vector_impl" = type { %"struct.std::_Vector_base<ceres::internal::Block, std::allocator<ceres::internal::Block>>::_Vector_impl_data" }
%"struct.std::_Vector_base<ceres::internal::Block, std::allocator<ceres::internal::Block>>::_Vector_impl_data" = type { ptr, ptr, ptr }
%"class.std::vector" = type { %"struct.std::_Vector_base" }
%"struct.std::_Vector_base" = type { %"struct.std::_Vector_base<int, std::allocator<int>>::_Vector_impl" }
%"struct.std::_Vector_base<int, std::allocator<int>>::_Vector_impl" = type { %"struct.std::_Vector_base<int, std::allocator<int>>::_Vector_impl_data" }
%"struct.std::_Vector_base<int, std::allocator<int>>::_Vector_impl_data" = type { ptr, ptr, ptr }
%"class.std::unique_ptr.35" = type { %"struct.std::__uniq_ptr_data.36" }
%"struct.std::__uniq_ptr_data.36" = type { %"class.std::__uniq_ptr_impl.37" }
%"class.std::__uniq_ptr_impl.37" = type { %"class.std::tuple.38" }
%"class.std::tuple.38" = type { %"struct.std::_Tuple_impl.39" }
%"struct.std::_Tuple_impl.39" = type { %"struct.std::_Head_base.42" }
%"struct.std::_Head_base.42" = type { ptr }
%"class.ceres::internal::VisibilityBasedPreconditioner" = type { %"class.ceres::internal::TypedPreconditioner", %"struct.ceres::internal::Preconditioner::Options", i32, i32, %"class.std::vector.1", %"class.std::vector", %"class.absl::lts_20240116::btree_set", %"class.absl::lts_20240116::flat_hash_set", %"class.std::unique_ptr", %"class.std::unique_ptr.19", %"class.std::unique_ptr.27", %"class.std::unique_ptr.35" }
%"class.ceres::internal::TypedPreconditioner" = type { %"class.ceres::internal::Preconditioner" }
%"class.ceres::internal::Preconditioner" = type { %"class.ceres::internal::LinearOperator" }
%"class.ceres::internal::LinearOperator" = type { ptr }
%"struct.ceres::internal::Preconditioner::Options" = type { i32, i32, i32, i32, i32, i32, %"class.std::vector", i32, i32, i32, ptr }
%"class.absl::lts_20240116::btree_set" = type { %"class.absl::lts_20240116::container_internal::btree_set_container" }
%"class.absl::lts_20240116::container_internal::btree_set_container" = type { %"class.absl::lts_20240116::container_internal::btree_container" }
%"class.absl::lts_20240116::container_internal::btree_container" = type { %"class.absl::lts_20240116::container_internal::btree" }
%"class.absl::lts_20240116::container_internal::btree" = type { ptr, %"class.absl::lts_20240116::container_internal::CompressedTuple", i64 }
%"class.absl::lts_20240116::container_internal::CompressedTuple" = type { %"struct.absl::lts_20240116::container_internal::internal_compressed_tuple::CompressedTupleImpl" }
%"struct.absl::lts_20240116::container_internal::internal_compressed_tuple::CompressedTupleImpl" = type { %"struct.absl::lts_20240116::container_internal::internal_compressed_tuple::Storage.10" }
%"struct.absl::lts_20240116::container_internal::internal_compressed_tuple::Storage.10" = type { ptr }
%"class.absl::lts_20240116::flat_hash_set" = type { %"class.absl::lts_20240116::container_internal::raw_hash_set" }
%"class.absl::lts_20240116::container_internal::raw_hash_set" = type { %"class.absl::lts_20240116::container_internal::CompressedTuple.11" }
%"class.absl::lts_20240116::container_internal::CompressedTuple.11" = type { %"struct.absl::lts_20240116::container_internal::internal_compressed_tuple::CompressedTupleImpl.12" }
%"struct.absl::lts_20240116::container_internal::internal_compressed_tuple::CompressedTupleImpl.12" = type { %"struct.absl::lts_20240116::container_internal::internal_compressed_tuple::Storage.13" }
%"struct.absl::lts_20240116::container_internal::internal_compressed_tuple::Storage.13" = type { %"class.absl::lts_20240116::container_internal::CommonFields" }
%"class.absl::lts_20240116::container_internal::CommonFields" = type { ptr, ptr, i64, i64 }
%"class.std::unique_ptr" = type { %"struct.std::__uniq_ptr_data" }
%"struct.std::__uniq_ptr_data" = type { %"class.std::__uniq_ptr_impl" }
%"class.std::__uniq_ptr_impl" = type { %"class.std::tuple" }
%"class.std::tuple" = type { %"struct.std::_Tuple_impl" }
%"struct.std::_Tuple_impl" = type { %"struct.std::_Head_base.18" }
%"struct.std::_Head_base.18" = type { ptr }
%"class.std::unique_ptr.19" = type { %"struct.std::__uniq_ptr_data.20" }
%"struct.std::__uniq_ptr_data.20" = type { %"class.std::__uniq_ptr_impl.21" }
%"class.std::__uniq_ptr_impl.21" = type { %"class.std::tuple.22" }
%"class.std::tuple.22" = type { %"struct.std::_Tuple_impl.23" }
%"struct.std::_Tuple_impl.23" = type { %"struct.std::_Head_base.26" }
%"struct.std::_Head_base.26" = type { ptr }
%"class.std::unique_ptr.27" = type { %"struct.std::__uniq_ptr_data.28" }
%"struct.std::__uniq_ptr_data.28" = type { %"class.std::__uniq_ptr_impl.29" }
%"class.std::__uniq_ptr_impl.29" = type { %"class.std::tuple.30" }
%"class.std::tuple.30" = type { %"struct.std::_Tuple_impl.31" }
%"struct.std::_Tuple_impl.31" = type { %"struct.std::_Head_base.34" }
%"struct.std::_Head_base.34" = type { ptr }

; Function Attrs: mustprogress nounwind uwtable
define linkonce_odr hidden noundef nonnull align 4 dereferenceable(4) ptr @_ZNKSt6vectorIiSaIiEEixEm(ptr noundef nonnull align 8 dereferenceable(24) %0, i64 noundef %1) #4 comdat align 2 {
  %3 = alloca ptr, align 8
  %4 = alloca i64, align 8
  store ptr %0, ptr %3, align 8, !tbaa !108
  store i64 %1, ptr %4, align 8, !tbaa !88
  %5 = load ptr, ptr %3, align 8
  %6 = getelementptr inbounds nuw %"struct.std::_Vector_base", ptr %5, i32 0, i32 0
  %7 = getelementptr inbounds nuw %"struct.std::_Vector_base<int, std::allocator<int>>::_Vector_impl_data", ptr %6, i32 0, i32 0
  %8 = load ptr, ptr %7, align 8, !tbaa !128
  %9 = load i64, ptr %4, align 8, !tbaa !88
  %10 = getelementptr inbounds nuw i32, ptr %8, i64 %9
  ret ptr %10
}

; Function Attrs: mustprogress nounwind uwtable
define hidden noundef zeroext i1 @_ZNK5ceres8internal29VisibilityBasedPreconditioner22IsBlockPairOffDiagonalEii(ptr noundef nonnull align 8 dereferenceable(224) %0, i32 noundef %1, i32 noundef %2) #4 align 2 {
  %4 = alloca ptr, align 8
  %5 = alloca i32, align 4
  %6 = alloca i32, align 4
  store ptr %0, ptr %4, align 8, !tbaa !14
  store i32 %1, ptr %5, align 4, !tbaa !89
  store i32 %2, ptr %6, align 4, !tbaa !89
  %7 = load ptr, ptr %4, align 8
  %8 = getelementptr inbounds nuw %"class.ceres::internal::VisibilityBasedPreconditioner", ptr %7, i32 0, i32 5
  %9 = load i32, ptr %5, align 4, !tbaa !89
  %10 = sext i32 %9 to i64
  %11 = call noundef nonnull align 4 dereferenceable(4) ptr @_ZNKSt6vectorIiSaIiEEixEm(ptr noundef nonnull align 8 dereferenceable(24) %8, i64 noundef %10) #3
  %12 = load i32, ptr %11, align 4, !tbaa !89
  %13 = getelementptr inbounds nuw %"class.ceres::internal::VisibilityBasedPreconditioner", ptr %7, i32 0, i32 5
  %14 = load i32, ptr %6, align 4, !tbaa !89
  %15 = sext i32 %14 to i64
  %16 = call noundef nonnull align 4 dereferenceable(4) ptr @_ZNKSt6vectorIiSaIiEEixEm(ptr noundef nonnull align 8 dereferenceable(24) %13, i64 noundef %15) #3
  %17 = load i32, ptr %16, align 4, !tbaa !89
  %18 = icmp ne i32 %12, %17
  ret i1 %18
}