; Function Attrs: mustprogress nofree norecurse nosync nounwind willreturn memory(read, inaccessiblemem: none) uwtable
define hidden noundef zeroext i1 @_ZNK5ceres8internal29VisibilityBasedPreconditioner22IsBlockPairOffDiagonalEii(ptr noundef nonnull readonly align 8 captures(none) dereferenceable(224) %0, i32 noundef %1, i32 noundef %2) local_unnamed_addr #15 align 2 {
  %4 = getelementptr inbounds nuw i8, ptr %0, i64 112
  %5 = sext i32 %1 to i64
  %6 = load ptr, ptr %4, align 8, !tbaa !6
  %7 = getelementptr inbounds nuw i32, ptr %6, i64 %5
  %8 = load i32, ptr %7, align 4, !tbaa !23
  %9 = sext i32 %2 to i64
  %10 = getelementptr inbounds nuw i32, ptr %6, i64 %9
  %11 = load i32, ptr %10, align 4, !tbaa !23
  %12 = icmp ne i32 %8, %11
  ret i1 %12
}